; Function Attrs: mustprogress nounwind uwtable
define hidden void @_ZN18RepositoryIteratorD2Ev(ptr nocapture noundef nonnull readonly align 8 dereferenceable(16) %0) unnamed_addr #0 align 2 {
  %2 = load ptr, ptr %0, align 8
  %.not = icmp eq ptr %2, null
  br i1 %.not, label %18, label %.preheader

.preheader:                                       ; preds = %1
  %3 = load i32, ptr %2, align 4
  %4 = icmp sgt i32 %3, 0
  br i1 %4, label %.lr.ph, label %._crit_edge

.lr.ph:                                           ; preds = %.preheader, %.lr.ph
  %indvars.iv = phi i64 [ %indvars.iv.next, %.lr.ph ], [ 0, %.preheader ]
  %5 = phi ptr [ %10, %.lr.ph ], [ %2, %.preheader ]
  %6 = getelementptr inbounds i8, ptr %5, i64 8
  %7 = load ptr, ptr %6, align 8
  %8 = getelementptr inbounds ptr, ptr %7, i64 %indvars.iv
  %9 = load ptr, ptr %8, align 8
  tail call void @_ZN2os4freeEPv(ptr noundef %9) #16
  %indvars.iv.next = add nuw nsw i64 %indvars.iv, 1
  %10 = load ptr, ptr %0, align 8
  %11 = load i32, ptr %10, align 4
  %12 = sext i32 %11 to i64
  %13 = icmp slt i64 %indvars.iv.next, %12
  br i1 %13, label %.lr.ph, label %._crit_edge, !llvm.loop !8

._crit_edge:                                      ; preds = %.lr.ph, %.preheader
  %.lcssa = phi ptr [ %2, %.preheader ], [ %10, %.lr.ph ]
  %14 = getelementptr inbounds i8, ptr %.lcssa, i64 16
  %15 = load i64, ptr %14, align 8
  %16 = and i64 %15, 1
  %.not.i = icmp eq i64 %16, 0
  br i1 %.not.i, label %_ZN13GrowableArrayIPKcED2Ev.exit, label %17

17:                                               ; preds = %._crit_edge
  store i32 0, ptr %.lcssa, align 4
  tail call void @_ZN26GrowableArrayWithAllocatorIPKc13GrowableArrayIS1_EE13shrink_to_fitEv(ptr noundef nonnull align 8 dereferenceable(16) %.lcssa)
  br label %_ZN13GrowableArrayIPKcED2Ev.exit

_ZN13GrowableArrayIPKcED2Ev.exit:                 ; preds = %._crit_edge, %17
  tail call void @_ZN6AnyObjdlEPv(ptr noundef nonnull %.lcssa) #16
  br label %18

18:                                               ; preds = %_ZN13GrowableArrayIPKcED2Ev.exit, %1
  ret void
}